; ModuleID = '44/182.c'
source_filename = "44/182.c"
target datalayout = "e-m:e-p270:32:32-p271:32:32-p272:64:64-i64:64-f80:128-n8:16:32:64-S128"
target triple = "x86_64-pc-linux-gnu"

@.str = private unnamed_addr constant [3 x i8] c"%d\00", align 1
@.str.1 = private unnamed_addr constant [4 x i8] c"%d\0A\00", align 1

; Function Attrs: noinline nounwind uwtable
define dso_local i32 @f(i32 %0) #0 {
  %2 = alloca i32, align 4
  %3 = alloca i32, align 4
  store i32 %0, i32* %2, align 4
  store i32 0, i32* %3, align 4
  br label %4

4:                                                ; preds = %7, %1
  %5 = load i32, i32* %2, align 4
  %6 = icmp ne i32 %5, 0
  br i1 %6, label %7, label %15

7:                                                ; preds = %4
  %8 = load i32, i32* %3, align 4
  %9 = mul nsw i32 %8, 10
  %10 = load i32, i32* %2, align 4
  %11 = srem i32 %10, 10
  %12 = add nsw i32 %9, %11
  store i32 %12, i32* %3, align 4
  %13 = load i32, i32* %2, align 4
  %14 = sdiv i32 %13, 10
  store i32 %14, i32* %2, align 4
  br label %4

15:                                               ; preds = %4
  %16 = load i32, i32* %3, align 4
  ret i32 %16
}

; Function Attrs: noinline nounwind uwtable
define dso_local i32 @main() #0 {
  %1 = alloca i32, align 4
  %2 = alloca [7 x i32], align 16
  %3 = alloca [7 x i32], align 16
  %4 = alloca [7 x i32], align 16
  %5 = alloca i32, align 4
  %6 = alloca i32, align 4
  store i32 0, i32* %1, align 4
  store i32 1, i32* %5, align 4
  br label %7

7:                                                ; preds = %50, %0
  %8 = load i32, i32* %5, align 4
  %9 = icmp sle i32 %8, 6
  br i1 %9, label %10, label %53

10:                                               ; preds = %7
  %11 = load i32, i32* %5, align 4
  %12 = sext i32 %11 to i64
  %13 = getelementptr inbounds [7 x i32], [7 x i32]* %2, i64 0, i64 %12
  %14 = call i32 (i8*, ...) @__isoc99_scanf(i8* getelementptr inbounds ([3 x i8], [3 x i8]* @.str, i64 0, i64 0), i32* %13)
  %15 = load i32, i32* %5, align 4
  %16 = sext i32 %15 to i64
  %17 = getelementptr inbounds [7 x i32], [7 x i32]* %2, i64 0, i64 %16
  %18 = load i32, i32* %17, align 4
  %19 = icmp sge i32 %18, 0
  br i1 %19, label %20, label %30

20:                                               ; preds = %10
  %21 = load i32, i32* %5, align 4
  %22 = sext i32 %21 to i64
  %23 = getelementptr inbounds [7 x i32], [7 x i32]* %2, i64 0, i64 %22
  %24 = load i32, i32* %23, align 4
  store i32 %24, i32* %6, align 4
  %25 = load i32, i32* %6, align 4
  %26 = call i32 @f(i32 %25)
  %27 = load i32, i32* %5, align 4
  %28 = sext i32 %27 to i64
  %29 = getelementptr inbounds [7 x i32], [7 x i32]* %4, i64 0, i64 %28
  store i32 %26, i32* %29, align 4
  br label %49

30:                                               ; preds = %10
  %31 = load i32, i32* %5, align 4
  %32 = sext i32 %31 to i64
  %33 = getelementptr inbounds [7 x i32], [7 x i32]* %2, i64 0, i64 %32
  %34 = load i32, i32* %33, align 4
  %35 = sub nsw i32 0, %34
  store i32 %35, i32* %6, align 4
  %36 = load i32, i32* %6, align 4
  %37 = call i32 @f(i32 %36)
  %38 = load i32, i32* %5, align 4
  %39 = sext i32 %38 to i64
  %40 = getelementptr inbounds [7 x i32], [7 x i32]* %3, i64 0, i64 %39
  store i32 %37, i32* %40, align 4
  %41 = load i32, i32* %5, align 4
  %42 = sext i32 %41 to i64
  %43 = getelementptr inbounds [7 x i32], [7 x i32]* %3, i64 0, i64 %42
  %44 = load i32, i32* %43, align 4
  %45 = sub nsw i32 0, %44
  %46 = load i32, i32* %5, align 4
  %47 = sext i32 %46 to i64
  %48 = getelementptr inbounds [7 x i32], [7 x i32]* %4, i64 0, i64 %47
  store i32 %45, i32* %48, align 4
  br label %49

49:                                               ; preds = %30, %20
  br label %50

50:                                               ; preds = %49
  %51 = load i32, i32* %5, align 4
  %52 = add nsw i32 %51, 1
  store i32 %52, i32* %5, align 4
  br label %7

53:                                               ; preds = %7
  store i32 1, i32* %5, align 4
  br label %54

54:                                               ; preds = %63, %53
  %55 = load i32, i32* %5, align 4
  %56 = icmp sle i32 %55, 6
  br i1 %56, label %57, label %66

57:                                               ; preds = %54
  %58 = load i32, i32* %5, align 4
  %59 = sext i32 %58 to i64
  %60 = getelementptr inbounds [7 x i32], [7 x i32]* %4, i64 0, i64 %59
  %61 = load i32, i32* %60, align 4
  %62 = call i32 (i8*, ...) @printf(i8* getelementptr inbounds ([4 x i8], [4 x i8]* @.str.1, i64 0, i64 0), i32 %61)
  br label %63

63:                                               ; preds = %57
  %64 = load i32, i32* %5, align 4
  %65 = add nsw i32 %64, 1
  store i32 %65, i32* %5, align 4
  br label %54

66:                                               ; preds = %54
  ret i32 0
}

declare dso_local i32 @__isoc99_scanf(i8*, ...) #1

declare dso_local i32 @printf(i8*, ...) #1


!llvm.module.flags = !{!0}
!llvm.ident = !{!1}

!0 = !{i32 1, !"wchar_size", i32 4}
!1 = !{!"clang version 10.0.0-4ubuntu1 "}
